target datalayout = "e-m:e-p270:32:32-p271:32:32-p272:64:64-i64:64-i128:128-f80:128-n8:16:32:64-S128"
target triple = "x86_64-pc-linux-gnu"

; Function Attrs: nounwind uwtable
define internal i64 @mpi_bigendian_to_host(i64 noundef %0) #0 {
  %2 = alloca i64, align 8
  store i64 %0, ptr %2, align 8, !tbaa !3
  %3 = load i64, ptr %2, align 8, !tbaa !3
  %4 = call i64 @llvm.bswap.i64(i64 %3)
  ret i64 %4
}

; Function Attrs: nounwind uwtable
define hidden void @mbedtls_mpi_core_bigendian_to_host(ptr noundef %0, i64 noundef %1) #0 {
  %3 = alloca ptr, align 8
  %4 = alloca i64, align 8
  %5 = alloca ptr, align 8
  %6 = alloca ptr, align 8
  %7 = alloca i32, align 4
  %8 = alloca i64, align 8
  store ptr %0, ptr %3, align 8, !tbaa !7
  store i64 %1, ptr %4, align 8, !tbaa !3
  call void @llvm.lifetime.start.p0(i64 8, ptr %5) #7
  call void @llvm.lifetime.start.p0(i64 8, ptr %6) #7
  %9 = load i64, ptr %4, align 8, !tbaa !3
  %10 = icmp eq i64 %9, 0
  br i1 %10, label %11, label %12

11:                                               ; preds = %2
  store i32 1, ptr %7, align 4
  br label %38

12:                                               ; preds = %2
  %13 = load ptr, ptr %3, align 8, !tbaa !7
  store ptr %13, ptr %5, align 8, !tbaa !7
  %14 = load ptr, ptr %3, align 8, !tbaa !7
  %15 = load i64, ptr %4, align 8, !tbaa !3
  %16 = sub i64 %15, 1
  %17 = getelementptr inbounds nuw i64, ptr %14, i64 %16
  store ptr %17, ptr %6, align 8, !tbaa !7
  br label %18

18:                                               ; preds = %32, %12
  %19 = load ptr, ptr %5, align 8, !tbaa !7
  %20 = load ptr, ptr %6, align 8, !tbaa !7
  %21 = icmp ule ptr %19, %20
  br i1 %21, label %22, label %37

22:                                               ; preds = %18
  call void @llvm.lifetime.start.p0(i64 8, ptr %8) #7
  %23 = load ptr, ptr %5, align 8, !tbaa !7
  %24 = load i64, ptr %23, align 8, !tbaa !3
  %25 = call i64 @mpi_bigendian_to_host(i64 noundef %24)
  store i64 %25, ptr %8, align 8, !tbaa !3
  %26 = load ptr, ptr %6, align 8, !tbaa !7
  %27 = load i64, ptr %26, align 8, !tbaa !3
  %28 = call i64 @mpi_bigendian_to_host(i64 noundef %27)
  %29 = load ptr, ptr %5, align 8, !tbaa !7
  store i64 %28, ptr %29, align 8, !tbaa !3
  %30 = load i64, ptr %8, align 8, !tbaa !3
  %31 = load ptr, ptr %6, align 8, !tbaa !7
  store i64 %30, ptr %31, align 8, !tbaa !3
  call void @llvm.lifetime.end.p0(i64 8, ptr %8) #7
  br label %32

32:                                               ; preds = %22
  %33 = load ptr, ptr %5, align 8, !tbaa !7
  %34 = getelementptr inbounds nuw i64, ptr %33, i32 1
  store ptr %34, ptr %5, align 8, !tbaa !7
  %35 = load ptr, ptr %6, align 8, !tbaa !7
  %36 = getelementptr inbounds i64, ptr %35, i32 -1
  store ptr %36, ptr %6, align 8, !tbaa !7
  br label %18, !llvm.loop !14

37:                                               ; preds = %18
  store i32 0, ptr %7, align 4
  br label %38

38:                                               ; preds = %37, %11
  call void @llvm.lifetime.end.p0(i64 8, ptr %6) #7
  call void @llvm.lifetime.end.p0(i64 8, ptr %5) #7
  %39 = load i32, ptr %7, align 4
  switch i32 %39, label %41 [
    i32 0, label %40
    i32 1, label %40
  ]

40:                                               ; preds = %38, %38
  ret void

41:                                               ; preds = %38
  unreachable
}

; Function Attrs: nounwind uwtable
define hidden i32 @mbedtls_mpi_core_read_be(ptr noundef %0, i64 noundef %1, ptr noundef %2, i64 noundef %3) #0 {
  %5 = alloca i32, align 4
  %6 = alloca ptr, align 8
  %7 = alloca i64, align 8
  %8 = alloca ptr, align 8
  %9 = alloca i64, align 8
  %10 = alloca i64, align 8
  %11 = alloca i32, align 4
  %12 = alloca i64, align 8
  %13 = alloca ptr, align 8
  store ptr %0, ptr %6, align 8, !tbaa !7
  store i64 %1, ptr %7, align 8, !tbaa !3
  store ptr %2, ptr %8, align 8, !tbaa !22
  store i64 %3, ptr %9, align 8, !tbaa !3
  call void @llvm.lifetime.start.p0(i64 8, ptr %10) #7
  %14 = load i64, ptr %9, align 8, !tbaa !3
  %15 = udiv i64 %14, 8
  %16 = load i64, ptr %9, align 8, !tbaa !3
  %17 = urem i64 %16, 8
  %18 = icmp ne i64 %17, 0
  %19 = zext i1 %18 to i32
  %20 = sext i32 %19 to i64
  %21 = add i64 %15, %20
  store i64 %21, ptr %10, align 8, !tbaa !3
  %22 = load i64, ptr %7, align 8, !tbaa !3
  %23 = load i64, ptr %10, align 8, !tbaa !3
  %24 = icmp ult i64 %22, %23
  br i1 %24, label %25, label %26

25:                                               ; preds = %4
  store i32 -8, ptr %5, align 4
  store i32 1, ptr %11, align 4
  br label %50

26:                                               ; preds = %4
  %27 = load i64, ptr %7, align 8, !tbaa !3
  %28 = icmp eq i64 %27, 0
  br i1 %28, label %29, label %30

29:                                               ; preds = %26
  store i32 0, ptr %5, align 4
  store i32 1, ptr %11, align 4
  br label %50

30:                                               ; preds = %26
  %31 = load ptr, ptr %6, align 8, !tbaa !7
  %32 = load i64, ptr %7, align 8, !tbaa !3
  %33 = mul i64 %32, 8
  call void @llvm.memset.p0.i64(ptr align 8 %31, i8 0, i64 %33, i1 false)
  %34 = load i64, ptr %9, align 8, !tbaa !3
  %35 = icmp ne i64 %34, 0
  br i1 %35, label %36, label %47

36:                                               ; preds = %30
  call void @llvm.lifetime.start.p0(i64 8, ptr %12) #7
  %37 = load i64, ptr %7, align 8, !tbaa !3
  %38 = mul i64 %37, 8
  %39 = load i64, ptr %9, align 8, !tbaa !3
  %40 = sub i64 %38, %39
  store i64 %40, ptr %12, align 8, !tbaa !3
  call void @llvm.lifetime.start.p0(i64 8, ptr %13) #7
  %41 = load ptr, ptr %6, align 8, !tbaa !7
  store ptr %41, ptr %13, align 8, !tbaa !22
  %42 = load ptr, ptr %13, align 8, !tbaa !22
  %43 = load i64, ptr %12, align 8, !tbaa !3
  %44 = getelementptr inbounds nuw i8, ptr %42, i64 %43
  %45 = load ptr, ptr %8, align 8, !tbaa !22
  %46 = load i64, ptr %9, align 8, !tbaa !3
  call void @llvm.memcpy.p0.p0.i64(ptr align 1 %44, ptr align 1 %45, i64 %46, i1 false)
  call void @llvm.lifetime.end.p0(i64 8, ptr %13) #7
  call void @llvm.lifetime.end.p0(i64 8, ptr %12) #7
  br label %47

47:                                               ; preds = %36, %30
  %48 = load ptr, ptr %6, align 8, !tbaa !7
  %49 = load i64, ptr %7, align 8, !tbaa !3
  call void @mbedtls_mpi_core_bigendian_to_host(ptr noundef %48, i64 noundef %49)
  store i32 0, ptr %5, align 4
  store i32 1, ptr %11, align 4
  br label %50

50:                                               ; preds = %47, %29, %25
  call void @llvm.lifetime.end.p0(i64 8, ptr %10) #7
  %51 = load i32, ptr %5, align 4
  ret i32 %51
}