; Function Attrs: nofree norecurse nosync nounwind memory(argmem: readwrite) uwtable
define hidden range(i32 -8, 1) i32 @mbedtls_mpi_core_read_be(ptr noundef %0, i64 noundef %1, ptr noundef readonly captures(none) %2, i64 noundef %3) local_unnamed_addr #4 {
  %5 = lshr i64 %3, 3
  %6 = and i64 %3, 7
  %7 = icmp ne i64 %6, 0
  %8 = zext i1 %7 to i64
  %9 = add nuw nsw i64 %5, %8
  %10 = icmp ult i64 %1, %9
  br i1 %10, label %mbedtls_mpi_core_bigendian_to_host.exit, label %11

11:                                               ; preds = %4
  %12 = icmp eq i64 %1, 0
  br i1 %12, label %mbedtls_mpi_core_bigendian_to_host.exit, label %13

13:                                               ; preds = %11
  %14 = shl i64 %1, 3
  tail call void @llvm.memset.p0.i64(ptr align 8 %0, i8 0, i64 %14, i1 false)
  %.not = icmp eq i64 %3, 0
  br i1 %.not, label %18, label %15

15:                                               ; preds = %13
  %16 = sub i64 %14, %3
  %17 = getelementptr inbounds nuw i8, ptr %0, i64 %16
  tail call void @llvm.memcpy.p0.p0.i64(ptr align 1 %17, ptr align 1 %2, i64 %3, i1 false)
  br label %18

18:                                               ; preds = %15, %13
  %19 = getelementptr i64, ptr %0, i64 %1
  %.01214.i = getelementptr i8, ptr %19, i64 -8
  %.not15.i = icmp ugt ptr %0, %.01214.i
  br i1 %.not15.i, label %mbedtls_mpi_core_bigendian_to_host.exit, label %.lr.ph.i

.lr.ph.i:                                         ; preds = %18, %.lr.ph.i
  %.01217.i = phi ptr [ %.012.i, %.lr.ph.i ], [ %.01214.i, %18 ]
  %.016.i = phi ptr [ %24, %.lr.ph.i ], [ %0, %18 ]
  %20 = load i64, ptr %.016.i, align 8, !tbaa !3
  %21 = tail call noundef i64 @llvm.bswap.i64(i64 %20)
  %22 = load i64, ptr %.01217.i, align 8, !tbaa !3
  %23 = tail call noundef i64 @llvm.bswap.i64(i64 %22)
  store i64 %23, ptr %.016.i, align 8, !tbaa !3
  store i64 %21, ptr %.01217.i, align 8, !tbaa !3
  %24 = getelementptr inbounds nuw i8, ptr %.016.i, i64 8
  %.012.i = getelementptr i8, ptr %.01217.i, i64 -8
  %.not.i = icmp ugt ptr %24, %.012.i
  br i1 %.not.i, label %mbedtls_mpi_core_bigendian_to_host.exit, label %.lr.ph.i, !llvm.loop !9

mbedtls_mpi_core_bigendian_to_host.exit:          ; preds = %.lr.ph.i, %18, %11, %4
  %.0 = phi i32 [ -8, %4 ], [ 0, %11 ], [ 0, %18 ], [ 0, %.lr.ph.i ]
  ret i32 %.0
}